; Function Attrs: mustprogress uwtable
define void @_ZN32pxrInternal_v0_24__pxrReserved__32UsdImagingDataSourceMaterialPrim3GetERKNS_7TfTokenE(ptr dead_on_unwind noalias writable sret(%"class.std::shared_ptr") align 8 %0, ptr noundef nonnull align 8 dereferenceable(56) %1, ptr noundef nonnull align 8 dereferenceable(8) %2) unnamed_addr #5 align 2 personality ptr @__gxx_personality_v0 {
  %4 = alloca %"class.std::shared_ptr.16", align 8
  %5 = tail call noundef nonnull align 8 dereferenceable(8) ptr @_ZN32pxrInternal_v0_24__pxrReserved__16HdMaterialSchema14GetSchemaTokenEv()
  %6 = load ptr, ptr %2, align 8
  %7 = ptrtoint ptr %6 to i64
  %8 = and i64 %7, -8
  %9 = inttoptr i64 %8 to ptr
  %10 = load ptr, ptr %5, align 8
  %11 = ptrtoint ptr %10 to i64
  %12 = and i64 %11, -8
  %13 = inttoptr i64 %12 to ptr
  %14 = icmp eq ptr %9, %13
  br i1 %14, label %_ZNSt10shared_ptrIN32pxrInternal_v0_24__pxrReserved__28UsdImagingDataSourceMaterialEED2Ev.exit, label %22

_ZNSt10shared_ptrIN32pxrInternal_v0_24__pxrReserved__28UsdImagingDataSourceMaterialEED2Ev.exit: ; preds = %3
  %15 = getelementptr inbounds nuw i8, ptr %1, i64 16
  %16 = getelementptr inbounds nuw i8, ptr %1, i64 48
  %17 = load ptr, ptr %16, align 8
  call void @_ZN32pxrInternal_v0_24__pxrReserved__28UsdImagingDataSourceMaterial3NewIJRKNS_7UsdPrimERKNS_32UsdImagingDataSourceStageGlobalsEEEESt10shared_ptrIS0_EDpOT_(ptr dead_on_unwind nonnull writable sret(%"class.std::shared_ptr.16") align 8 %4, ptr noundef nonnull align 8 dereferenceable(32) %15, ptr noundef nonnull align 8 dereferenceable(8) %17)
  %18 = load ptr, ptr %4, align 8
  store ptr %18, ptr %0, align 8
  %19 = getelementptr inbounds nuw i8, ptr %0, i64 8
  %20 = getelementptr inbounds nuw i8, ptr %4, i64 8
  %21 = load ptr, ptr %20, align 8
  store ptr %21, ptr %19, align 8
  br label %23

22:                                               ; preds = %3
  tail call void @_ZN32pxrInternal_v0_24__pxrReserved__24UsdImagingDataSourcePrim3GetERKNS_7TfTokenE(ptr dead_on_unwind writable sret(%"class.std::shared_ptr") align 8 %0, ptr noundef nonnull align 8 dereferenceable(56) %1, ptr noundef nonnull align 8 dereferenceable(8) %2)
  br label %23

23:                                               ; preds = %22, %_ZNSt10shared_ptrIN32pxrInternal_v0_24__pxrReserved__28UsdImagingDataSourceMaterialEED2Ev.exit
  ret void
}